target datalayout = "e-m:e-p270:32:32-p271:32:32-p272:64:64-i64:64-i128:128-f80:128-n8:16:32:64-S128"
target triple = "x86_64-pc-linux-gnu"

%struct.RBasic = type { i64, i64 }
%struct.RArray = type { %struct.RBasic, %union.anon.16 }
%union.anon.16 = type { %struct.anon.17 }
%struct.anon.17 = type { i64, %union.anon.18, ptr }
%union.anon.18 = type { i64 }

@envtbl = internal global i64 0, align 8
@.str.118 = private unnamed_addr constant [5 x i8] c"name\00", align 1

; Function Attrs: inlinehint nounwind sspstrong willreturn memory(read) uwtable
define internal i64 @RB_FL_TEST_RAW(i64 noundef %0, i64 noundef %1) #4 {
  %3 = alloca i64, align 8
  %4 = alloca i64, align 8
  store i64 %0, ptr %3, align 8, !tbaa !7
  store i64 %1, ptr %4, align 8, !tbaa !7
  %5 = load i64, ptr %3, align 8, !tbaa !7
  %6 = inttoptr i64 %5 to ptr
  %7 = getelementptr inbounds nuw %struct.RBasic, ptr %6, i32 0, i32 0
  %8 = load i64, ptr %7, align 8, !tbaa !64
  %9 = load i64, ptr %4, align 8, !tbaa !7
  %10 = and i64 %8, %9
  ret i64 %10
}

; Function Attrs: inlinehint nounwind sspstrong uwtable
define internal ptr @env_name(ptr noundef %0) #2 {
  %2 = alloca ptr, align 8
  %3 = alloca ptr, align 8
  store ptr %0, ptr %2, align 8, !tbaa !11
  call void @llvm.lifetime.start.p0(i64 8, ptr %3) #28
  %4 = load ptr, ptr %2, align 8, !tbaa !11
  %5 = call i64 @rb_string_value(ptr noundef %4)
  %6 = load ptr, ptr %2, align 8, !tbaa !11
  %7 = load volatile i64, ptr %6, align 8, !tbaa !7
  %8 = call ptr @get_env_cstr(i64 noundef %7, ptr noundef @.str.118)
  store ptr %8, ptr %3, align 8, !tbaa !14
  %9 = load ptr, ptr %3, align 8, !tbaa !14
  call void @llvm.lifetime.end.p0(i64 8, ptr %3) #28
  ret ptr %9
}

; Function Attrs: inlinehint nounwind sspstrong willreturn memory(read) uwtable
define internal ptr @rb_array_const_ptr(i64 noundef %0) #4 {
  %2 = alloca ptr, align 8
  %3 = alloca i64, align 8
  store i64 %0, ptr %3, align 8, !tbaa !7
  %4 = load i64, ptr %3, align 8, !tbaa !7
  %5 = call zeroext i1 @RB_FL_ANY_RAW(i64 noundef %4, i64 noundef 8192) #26
  br i1 %5, label %6, label %11

6:                                                ; preds = %1
  %7 = load i64, ptr %3, align 8, !tbaa !7
  %8 = inttoptr i64 %7 to ptr
  %9 = getelementptr inbounds nuw %struct.RArray, ptr %8, i32 0, i32 1
  %10 = getelementptr inbounds [1 x i64], ptr %9, i64 0, i64 0
  store ptr %10, ptr %2, align 8
  br label %17

11:                                               ; preds = %1
  %12 = load i64, ptr %3, align 8, !tbaa !7
  %13 = inttoptr i64 %12 to ptr
  %14 = getelementptr inbounds nuw %struct.RArray, ptr %13, i32 0, i32 1
  %15 = getelementptr inbounds nuw %struct.anon.17, ptr %14, i32 0, i32 2
  %16 = load ptr, ptr %15, align 8, !tbaa !22
  store ptr %16, ptr %2, align 8
  br label %17

17:                                               ; preds = %11, %6
  %18 = load ptr, ptr %2, align 8
  ret ptr %18
}

; Function Attrs: inlinehint nounwind sspstrong willreturn memory(read) uwtable
define internal i64 @RARRAY_EMBED_LEN(i64 noundef %0) #4 {
  %2 = alloca i64, align 8
  %3 = alloca i64, align 8
  store i64 %0, ptr %2, align 8, !tbaa !7
  call void @llvm.lifetime.start.p0(i64 8, ptr %3) #28
  %4 = load i64, ptr %2, align 8, !tbaa !7
  %5 = inttoptr i64 %4 to ptr
  %6 = getelementptr inbounds nuw %struct.RBasic, ptr %5, i32 0, i32 0
  %7 = load i64, ptr %6, align 8, !tbaa !64
  store i64 %7, ptr %3, align 8, !tbaa !7
  %8 = load i64, ptr %3, align 8, !tbaa !7
  %9 = and i64 %8, 4161536
  store i64 %9, ptr %3, align 8, !tbaa !7
  %10 = load i64, ptr %3, align 8, !tbaa !7
  %11 = lshr i64 %10, 15
  store i64 %11, ptr %3, align 8, !tbaa !7
  %12 = load i64, ptr %3, align 8, !tbaa !7
  call void @llvm.lifetime.end.p0(i64 8, ptr %3) #28
  ret i64 %12
}

; Function Attrs: inlinehint nounwind sspstrong willreturn memory(read) uwtable
define internal zeroext i1 @RB_FL_ANY_RAW(i64 noundef %0, i64 noundef %1) #4 {
  %3 = alloca i64, align 8
  %4 = alloca i64, align 8
  store i64 %0, ptr %3, align 8, !tbaa !7
  store i64 %1, ptr %4, align 8, !tbaa !7
  %5 = load i64, ptr %3, align 8, !tbaa !7
  %6 = load i64, ptr %4, align 8, !tbaa !7
  %7 = call i64 @RB_FL_TEST_RAW(i64 noundef %5, i64 noundef %6) #26
  %8 = icmp ne i64 %7, 0
  ret i1 %8
}

; Function Attrs: inlinehint nounwind sspstrong uwtable
define internal void @RBASIC_SET_CLASS_RAW(i64 noundef %0, i64 noundef %1) #2 {
  %3 = alloca i64, align 8
  %4 = alloca i64, align 8
  %5 = alloca ptr, align 8
  store i64 %0, ptr %3, align 8, !tbaa !7
  store i64 %1, ptr %4, align 8, !tbaa !7
  call void @llvm.lifetime.start.p0(i64 8, ptr %5) #28
  %6 = load i64, ptr %3, align 8, !tbaa !7
  %7 = inttoptr i64 %6 to ptr
  %8 = getelementptr inbounds nuw %struct.RBasic, ptr %7, i32 0, i32 1
  store ptr %8, ptr %5, align 8, !tbaa !11
  %9 = load i64, ptr %4, align 8, !tbaa !7
  %10 = load ptr, ptr %5, align 8, !tbaa !11
  store i64 %9, ptr %10, align 8, !tbaa !7
  call void @llvm.lifetime.end.p0(i64 8, ptr %5) #28
  ret void
}

; Function Attrs: inlinehint nounwind sspstrong willreturn memory(none) uwtable
define internal zeroext i1 @RB_TEST(i64 noundef %0) #5 {
  %2 = alloca i64, align 8
  store i64 %0, ptr %2, align 8, !tbaa !7
  %3 = load i64, ptr %2, align 8, !tbaa !7
  %4 = and i64 %3, -5
  %5 = icmp ne i64 %4, 0
  ret i1 %5
}

; Function Attrs: inlinehint nounwind sspstrong willreturn memory(none) uwtable
define internal zeroext i1 @RB_NIL_P(i64 noundef %0) #5 {
  %2 = alloca i64, align 8
  store i64 %0, ptr %2, align 8, !tbaa !7
  %3 = load i64, ptr %2, align 8, !tbaa !7
  %4 = icmp eq i64 %3, 4
  ret i1 %4
}

; Function Attrs: nounwind sspstrong uwtable
define internal i64 @rb_f_getenv(i64 noundef %0, i64 noundef %1) #0 {
  %3 = alloca i64, align 8
  %4 = alloca i64, align 8
  %5 = alloca ptr, align 8
  %6 = alloca i64, align 8
  store i64 %0, ptr %3, align 8, !tbaa !7
  store i64 %1, ptr %4, align 8, !tbaa !7
  call void @llvm.lifetime.start.p0(i64 8, ptr %5) #28
  %7 = call ptr @env_name(ptr noundef %4)
  store ptr %7, ptr %5, align 8, !tbaa !14
  call void @llvm.lifetime.start.p0(i64 8, ptr %6) #28
  %8 = load ptr, ptr %5, align 8, !tbaa !14
  %9 = call i64 @getenv_with_lock(ptr noundef %8)
  store i64 %9, ptr %6, align 8, !tbaa !7
  %10 = load i64, ptr %6, align 8, !tbaa !7
  call void @llvm.lifetime.end.p0(i64 8, ptr %6) #28
  call void @llvm.lifetime.end.p0(i64 8, ptr %5) #28
  ret i64 %10
}

; Function Attrs: inlinehint nounwind sspstrong willreturn memory(read) uwtable
define internal i64 @RARRAY_AREF(i64 noundef %0, i64 noundef %1) #4 {
  %3 = alloca i64, align 8
  %4 = alloca i64, align 8
  %5 = alloca i64, align 8
  store i64 %0, ptr %3, align 8, !tbaa !7
  store i64 %1, ptr %4, align 8, !tbaa !7
  call void @llvm.lifetime.start.p0(i64 8, ptr %5) #28
  %6 = load i64, ptr %3, align 8, !tbaa !7
  %7 = call ptr @rb_array_const_ptr(i64 noundef %6) #26
  %8 = load i64, ptr %4, align 8, !tbaa !7
  %9 = getelementptr i64, ptr %7, i64 %8
  %10 = load i64, ptr %9, align 8, !tbaa !7
  store i64 %10, ptr %5, align 8, !tbaa !7
  %11 = load i64, ptr %5, align 8, !tbaa !7
  call void @llvm.lifetime.end.p0(i64 8, ptr %5) #28
  ret i64 %11
}

; Function Attrs: inlinehint nounwind sspstrong willreturn memory(read) uwtable
define internal i64 @rb_array_len(i64 noundef %0) #4 {
  %2 = alloca i64, align 8
  %3 = alloca i64, align 8
  store i64 %0, ptr %3, align 8, !tbaa !7
  %4 = load i64, ptr %3, align 8, !tbaa !7
  %5 = call zeroext i1 @RB_FL_ANY_RAW(i64 noundef %4, i64 noundef 8192) #26
  br i1 %5, label %6, label %9

6:                                                ; preds = %1
  %7 = load i64, ptr %3, align 8, !tbaa !7
  %8 = call i64 @RARRAY_EMBED_LEN(i64 noundef %7) #26
  store i64 %8, ptr %2, align 8
  br label %15

9:                                                ; preds = %1
  %10 = load i64, ptr %3, align 8, !tbaa !7
  %11 = inttoptr i64 %10 to ptr
  %12 = getelementptr inbounds nuw %struct.RArray, ptr %11, i32 0, i32 1
  %13 = getelementptr inbounds nuw %struct.anon.17, ptr %12, i32 0, i32 0
  %14 = load i64, ptr %13, align 8, !tbaa !22
  store i64 %14, ptr %2, align 8
  br label %15

15:                                               ; preds = %9, %6
  %16 = load i64, ptr %2, align 8
  ret i64 %16
}

; Function Attrs: inlinehint nounwind sspstrong uwtable
define internal void @RBASIC_CLEAR_CLASS(i64 noundef %0) #2 {
  %2 = alloca i64, align 8
  store i64 %0, ptr %2, align 8, !tbaa !7
  %3 = load i64, ptr %2, align 8, !tbaa !7
  call void @RBASIC_SET_CLASS_RAW(i64 noundef %3, i64 noundef 0)
  ret void
}

; Function Attrs: nounwind sspstrong uwtable
define internal i64 @env_reject_bang(i64 noundef %0) #0 {
  %2 = alloca i64, align 8
  %3 = alloca i64, align 8
  %4 = alloca i64, align 8
  %5 = alloca i64, align 8
  %6 = alloca i32, align 4
  %7 = alloca i64, align 8
  %8 = alloca i32, align 4
  %9 = alloca i64, align 8
  %10 = alloca ptr, align 8
  %11 = alloca ptr, align 8
  store i64 %0, ptr %3, align 8, !tbaa !7
  call void @llvm.lifetime.start.p0(i64 8, ptr %4) #28
  call void @llvm.lifetime.start.p0(i64 8, ptr %5) #28
  call void @llvm.lifetime.start.p0(i64 4, ptr %6) #28
  store i32 0, ptr %6, align 4, !tbaa !16
  br label %12

12:                                               ; preds = %1
  %13 = call i32 @rb_block_given_p()
  %14 = icmp ne i32 %13, 0
  br i1 %14, label %21, label %15

15:                                               ; preds = %12
  %16 = load i64, ptr %3, align 8, !tbaa !7
  %17 = call i64 @rb_frame_this_func()
  %18 = call i64 @rb_id2sym(i64 noundef %17)
  store i64 %18, ptr %7, align 8, !tbaa !7
  %19 = load i64, ptr %7, align 8, !tbaa !7
  %20 = call i64 @rb_enumeratorize_with_size(i64 noundef %16, i64 noundef %19, i32 noundef 0, ptr noundef null, ptr noundef @rb_env_size)
  store i64 %20, ptr %2, align 8
  store i32 1, ptr %8, align 4
  br label %66

21:                                               ; preds = %12
  br label %22

22:                                               ; preds = %21
  br label %23

23:                                               ; preds = %22
  %24 = call i64 @env_keys(i32 noundef 0)
  store i64 %24, ptr %4, align 8, !tbaa !7
  %25 = load i64, ptr %4, align 8, !tbaa !7
  call void @RBASIC_CLEAR_CLASS(i64 noundef %25)
  store i64 0, ptr %5, align 8, !tbaa !7
  br label %26

26:                                               ; preds = %54, %23
  %27 = load i64, ptr %5, align 8, !tbaa !7
  %28 = load i64, ptr %4, align 8, !tbaa !7
  %29 = call i64 @rb_array_len(i64 noundef %28) #26
  %30 = icmp slt i64 %27, %29
  br i1 %30, label %31, label %57

31:                                               ; preds = %26
  call void @llvm.lifetime.start.p0(i64 8, ptr %9) #28
  %32 = load i64, ptr %4, align 8, !tbaa !7
  %33 = load i64, ptr %5, align 8, !tbaa !7
  %34 = call i64 @RARRAY_AREF(i64 noundef %32, i64 noundef %33) #26
  %35 = call i64 @rb_f_getenv(i64 noundef 4, i64 noundef %34)
  store i64 %35, ptr %9, align 8, !tbaa !7
  %36 = load i64, ptr %9, align 8, !tbaa !7
  %37 = call zeroext i1 @RB_NIL_P(i64 noundef %36) #27
  br i1 %37, label %53, label %38

38:                                               ; preds = %31
  %39 = load i64, ptr %4, align 8, !tbaa !7
  %40 = load i64, ptr %5, align 8, !tbaa !7
  %41 = call i64 @RARRAY_AREF(i64 noundef %39, i64 noundef %40) #26
  %42 = load i64, ptr %9, align 8, !tbaa !7
  %43 = call i64 (i32, ...) @rb_yield_values(i32 noundef 2, i64 noundef %41, i64 noundef %42)
  %44 = call zeroext i1 @RB_TEST(i64 noundef %43) #27
  br i1 %44, label %45, label %52

45:                                               ; preds = %38
  %46 = load i64, ptr %4, align 8, !tbaa !7
  %47 = load i64, ptr %5, align 8, !tbaa !7
  %48 = call i64 @RARRAY_AREF(i64 noundef %46, i64 noundef %47) #26
  %49 = call i64 @env_delete(i64 noundef %48)
  %50 = load i32, ptr %6, align 4, !tbaa !16
  %51 = add i32 %50, 1
  store i32 %51, ptr %6, align 4, !tbaa !16
  br label %52

52:                                               ; preds = %45, %38
  br label %53

53:                                               ; preds = %52, %31
  call void @llvm.lifetime.end.p0(i64 8, ptr %9) #28
  br label %54

54:                                               ; preds = %53
  %55 = load i64, ptr %5, align 8, !tbaa !7
  %56 = add i64 %55, 1
  store i64 %56, ptr %5, align 8, !tbaa !7
  br label %26, !llvm.loop !136

57:                                               ; preds = %26
  call void @llvm.lifetime.start.p0(i64 8, ptr %10) #28
  store ptr %4, ptr %10, align 8, !tbaa !11
  call void asm sideeffect "", "*m,~{dirflag},~{fpsr},~{flags}"(ptr elementtype(ptr) %10) #28, !srcloc !137
  %58 = load ptr, ptr %10, align 8, !tbaa !11
  store ptr %58, ptr %11, align 8, !tbaa !11
  call void @llvm.lifetime.end.p0(i64 8, ptr %10) #28
  %59 = load ptr, ptr %11, align 8, !tbaa !11
  %60 = load volatile i64, ptr %59, align 8, !tbaa !7
  %61 = load i32, ptr %6, align 4, !tbaa !16
  %62 = icmp eq i32 %61, 0
  br i1 %62, label %63, label %64

63:                                               ; preds = %57
  store i64 4, ptr %2, align 8
  store i32 1, ptr %8, align 4
  br label %66

64:                                               ; preds = %57
  %65 = load i64, ptr @envtbl, align 8, !tbaa !7
  store i64 %65, ptr %2, align 8
  store i32 1, ptr %8, align 4
  br label %66

66:                                               ; preds = %64, %63, %15
  call void @llvm.lifetime.end.p0(i64 4, ptr %6) #28
  call void @llvm.lifetime.end.p0(i64 8, ptr %5) #28
  call void @llvm.lifetime.end.p0(i64 8, ptr %4) #28
  %67 = load i64, ptr %2, align 8
  ret i64 %67
}