; Function Attrs: nounwind sspstrong uwtable
define internal i64 @env_reject_bang(i64 noundef %0) #0 {
  %2 = alloca i64, align 8
  %3 = alloca i64, align 8
  %4 = alloca ptr, align 8
  call void @llvm.lifetime.start.p0(i64 8, ptr nonnull %3) #28
  %5 = tail call i32 @rb_block_given_p() #28
  %.not = icmp eq i32 %5, 0
  br i1 %.not, label %6, label %10

6:                                                ; preds = %1
  %7 = tail call i64 @rb_frame_this_func() #28
  %8 = tail call i64 @rb_id2sym(i64 noundef %7) #28
  %9 = tail call i64 @rb_enumeratorize_with_size(i64 noundef %0, i64 noundef %8, i32 noundef 0, ptr noundef null, ptr noundef nonnull @rb_env_size) #28
  br label %65

10:                                               ; preds = %1
  %11 = tail call fastcc i64 @env_keys(i32 noundef 0)
  store i64 %11, ptr %3, align 8, !tbaa !7
  %12 = inttoptr i64 %11 to ptr
  %13 = getelementptr inbounds nuw i8, ptr %12, i64 8
  store i64 0, ptr %13, align 8, !tbaa !7
  %14 = inttoptr i64 %11 to ptr
  %15 = getelementptr inbounds nuw i8, ptr %14, i64 16
  %16 = getelementptr inbounds nuw i8, ptr %14, i64 16
  %17 = getelementptr inbounds nuw i8, ptr %14, i64 32
  %18 = inttoptr i64 %11 to ptr
  %19 = getelementptr inbounds nuw i8, ptr %18, i64 16
  %20 = getelementptr inbounds nuw i8, ptr %18, i64 32
  %21 = getelementptr inbounds nuw i8, ptr %12, i64 16
  %22 = getelementptr inbounds nuw i8, ptr %12, i64 32
  br label %23

23:                                               ; preds = %58, %10
  %.013 = phi i32 [ 0, %10 ], [ %.1, %58 ]
  %.012 = phi i64 [ 0, %10 ], [ %59, %58 ]
  %24 = load i64, ptr %14, align 8, !tbaa !11
  %25 = and i64 %24, 8192
  %.not.i = icmp eq i64 %25, 0
  br i1 %.not.i, label %rb_array_len.exit, label %rb_array_len.exit.thread

rb_array_len.exit:                                ; preds = %23
  %26 = load i64, ptr %15, align 8, !tbaa !22
  %27 = icmp slt i64 %.012, %26
  br i1 %27, label %31, label %60

rb_array_len.exit.thread:                         ; preds = %23
  %28 = lshr i64 %24, 15
  %29 = and i64 %28, 127
  %30 = icmp samesign ult i64 %.012, %29
  br i1 %30, label %RARRAY_AREF.exit, label %60

31:                                               ; preds = %rb_array_len.exit
  %32 = load ptr, ptr %17, align 8, !tbaa !22
  br label %RARRAY_AREF.exit

RARRAY_AREF.exit:                                 ; preds = %rb_array_len.exit.thread, %31
  %.0.i.i = phi ptr [ %32, %31 ], [ %16, %rb_array_len.exit.thread ]
  %33 = getelementptr i64, ptr %.0.i.i, i64 %.012
  %34 = load i64, ptr %33, align 8, !tbaa !7
  call void @llvm.lifetime.start.p0(i64 8, ptr nonnull %2)
  store i64 %34, ptr %2, align 8, !tbaa !7
  %35 = call i64 @rb_string_value(ptr noundef nonnull %2) #28
  %36 = load volatile i64, ptr %2, align 8, !tbaa !7
  %37 = call fastcc ptr @get_env_cstr(i64 noundef %36, ptr noundef nonnull @.str.118)
  %38 = call fastcc noundef i64 @getenv_with_lock(ptr noundef %37)
  call void @llvm.lifetime.end.p0(i64 8, ptr nonnull %2)
  %39 = icmp eq i64 %38, 4
  br i1 %39, label %58, label %40

40:                                               ; preds = %RARRAY_AREF.exit
  %41 = load i64, ptr %18, align 8, !tbaa !11
  %42 = and i64 %41, 8192
  %.not.i.i14 = icmp eq i64 %42, 0
  br i1 %.not.i.i14, label %43, label %RARRAY_AREF.exit16

43:                                               ; preds = %40
  %44 = load ptr, ptr %20, align 8, !tbaa !22
  br label %RARRAY_AREF.exit16

RARRAY_AREF.exit16:                               ; preds = %40, %43
  %.0.i.i15 = phi ptr [ %44, %43 ], [ %19, %40 ]
  %45 = getelementptr i64, ptr %.0.i.i15, i64 %.012
  %46 = load i64, ptr %45, align 8, !tbaa !7
  %47 = call i64 (i32, ...) @rb_yield_values(i32 noundef 2, i64 noundef %46, i64 noundef %38) #28
  %48 = and i64 %47, -5
  %.not21 = icmp eq i64 %48, 0
  br i1 %.not21, label %58, label %49

49:                                               ; preds = %RARRAY_AREF.exit16
  %50 = load i64, ptr %12, align 8, !tbaa !11
  %51 = and i64 %50, 8192
  %.not.i.i17 = icmp eq i64 %51, 0
  br i1 %.not.i.i17, label %52, label %RARRAY_AREF.exit19

52:                                               ; preds = %49
  %53 = load ptr, ptr %22, align 8, !tbaa !22
  br label %RARRAY_AREF.exit19

RARRAY_AREF.exit19:                               ; preds = %49, %52
  %.0.i.i18 = phi ptr [ %53, %52 ], [ %21, %49 ]
  %54 = getelementptr i64, ptr %.0.i.i18, i64 %.012
  %55 = load i64, ptr %54, align 8, !tbaa !7
  %56 = call fastcc i64 @env_delete(i64 noundef %55)
  %57 = add i32 %.013, 1
  br label %58

58:                                               ; preds = %RARRAY_AREF.exit16, %RARRAY_AREF.exit19, %RARRAY_AREF.exit
  %.1 = phi i32 [ %.013, %RARRAY_AREF.exit ], [ %57, %RARRAY_AREF.exit19 ], [ %.013, %RARRAY_AREF.exit16 ]
  %59 = add nuw nsw i64 %.012, 1
  br label %23, !llvm.loop !128

60:                                               ; preds = %rb_array_len.exit.thread, %rb_array_len.exit
  call void @llvm.lifetime.start.p0(i64 8, ptr nonnull %4) #28
  store ptr %3, ptr %4, align 8, !tbaa !33
  call void asm sideeffect "", "*m,~{dirflag},~{fpsr},~{flags}"(ptr nonnull elementtype(ptr) %4) #28, !srcloc !129
  %61 = load ptr, ptr %4, align 8, !tbaa !33
  call void @llvm.lifetime.end.p0(i64 8, ptr nonnull %4) #28
  %62 = load volatile i64, ptr %61, align 8, !tbaa !7
  %63 = icmp eq i32 %.013, 0
  %64 = load i64, ptr @envtbl, align 8
  %spec.select = select i1 %63, i64 4, i64 %64
  br label %65

65:                                               ; preds = %60, %6
  %.0 = phi i64 [ %9, %6 ], [ %spec.select, %60 ]
  call void @llvm.lifetime.end.p0(i64 8, ptr nonnull %3) #28
  ret i64 %.0
}